; Function Attrs: mustprogress uwtable
define dso_local void @_ZN4base9ListValue12AppendStringENS_16BasicStringPieceINSt7__cxx1112basic_stringIcSt11char_traitsIcESaIcEEEEE(ptr nocapture noundef nonnull align 8 dereferenceable(40) %this, ptr %in_value.coerce0, i64 %in_value.coerce1) local_unnamed_addr #3 align 2 personality ptr @__gxx_personality_v0 {
entry:
  %in_value.i = alloca %"class.base::BasicStringPiece", align 8
  %in_value = alloca %"class.base::BasicStringPiece", align 8
  %agg.tmp = alloca %"class.base::BasicStringPiece", align 8
  %ref.tmp = alloca %"class.std::__cxx11::basic_string", align 8
  store ptr %in_value.coerce0, ptr %in_value, align 8
  %0 = getelementptr inbounds i8, ptr %in_value, i64 8
  store i64 %in_value.coerce1, ptr %0, align 8
  %call = tail call noalias noundef nonnull dereferenceable(48) ptr @_Znwm(i64 noundef 48) #25
  invoke void @_ZNK4base16BasicStringPieceINSt7__cxx1112basic_stringIcSt11char_traitsIcESaIcEEEE9as_stringEv(ptr nonnull sret(%"class.std::__cxx11::basic_string") align 8 %ref.tmp, ptr noundef nonnull align 8 dereferenceable(16) %in_value)
          to label %invoke.cont unwind label %ehcleanup.thread

invoke.cont:                                      ; preds = %entry
  invoke void @_ZN4base16BasicStringPieceINSt7__cxx1112basic_stringIcSt11char_traitsIcESaIcEEEEC1ERKS6_(ptr noundef nonnull align 8 dereferenceable(16) %agg.tmp, ptr noundef nonnull align 8 dereferenceable(32) %ref.tmp)
          to label %invoke.cont3 unwind label %ehcleanup.thread6

invoke.cont3:                                     ; preds = %invoke.cont
  %1 = load ptr, ptr %agg.tmp, align 8
  %2 = getelementptr inbounds i8, ptr %agg.tmp, i64 8
  %3 = load i64, ptr %2, align 8
  call void @llvm.lifetime.start.p0(i64 16, ptr nonnull %in_value.i)
  store ptr %1, ptr %in_value.i, align 8
  %4 = getelementptr inbounds i8, ptr %in_value.i, i64 8
  store i64 %3, ptr %4, align 8
  %type_.i.i = getelementptr inbounds i8, ptr %call, i64 8
  store i32 4, ptr %type_.i.i, align 8
  store ptr getelementptr inbounds ({ [17 x ptr] }, ptr @_ZTVN4base11StringValueE, i64 0, i32 0, i64 2), ptr %call, align 8
  %value_.i = getelementptr inbounds i8, ptr %call, i64 16
  invoke void @_ZNK4base16BasicStringPieceINSt7__cxx1112basic_stringIcSt11char_traitsIcESaIcEEEE9as_stringEv(ptr nonnull sret(%"class.std::__cxx11::basic_string") align 8 %value_.i, ptr noundef nonnull align 8 dereferenceable(16) %in_value.i)
          to label %invoke.cont4 unwind label %ehcleanup.thread6

invoke.cont4:                                     ; preds = %invoke.cont3
  call void @llvm.lifetime.end.p0(i64 16, ptr nonnull %in_value.i)
  invoke void @_ZN4base9ListValue6AppendEPNS_5ValueE(ptr noundef nonnull align 8 dereferenceable(40) %this, ptr noundef nonnull %call)
          to label %invoke.cont5 unwind label %ehcleanup

invoke.cont5:                                     ; preds = %invoke.cont4
  call void @_ZNSt7__cxx1112basic_stringIcSt11char_traitsIcESaIcEED1Ev(ptr noundef nonnull align 8 dereferenceable(32) %ref.tmp) #26
  ret void

ehcleanup.thread:                                 ; preds = %entry
  %5 = landingpad { ptr, i32 }
          cleanup
  br label %cleanup.action

ehcleanup.thread6:                                ; preds = %invoke.cont, %invoke.cont3
  %lpad.thr_comm = landingpad { ptr, i32 }
          cleanup
  call void @_ZNSt7__cxx1112basic_stringIcSt11char_traitsIcESaIcEED1Ev(ptr noundef nonnull align 8 dereferenceable(32) %ref.tmp) #26
  br label %cleanup.action

ehcleanup:                                        ; preds = %invoke.cont4
  %lpad.thr_comm.split-lp = landingpad { ptr, i32 }
          cleanup
  call void @_ZNSt7__cxx1112basic_stringIcSt11char_traitsIcESaIcEED1Ev(ptr noundef nonnull align 8 dereferenceable(32) %ref.tmp) #26
  br label %eh.resume

cleanup.action:                                   ; preds = %ehcleanup.thread6, %ehcleanup.thread
  %.pn5 = phi { ptr, i32 } [ %5, %ehcleanup.thread ], [ %lpad.thr_comm, %ehcleanup.thread6 ]
  call void @_ZdlPv(ptr noundef nonnull %call) #24
  br label %eh.resume

eh.resume:                                        ; preds = %ehcleanup, %cleanup.action
  %.pn4 = phi { ptr, i32 } [ %lpad.thr_comm.split-lp, %ehcleanup ], [ %.pn5, %cleanup.action ]
  resume { ptr, i32 } %.pn4
}